target datalayout = "e-m:e-p270:32:32-p271:32:32-p272:64:64-i64:64-i128:128-f80:128-n8:16:32:64-S128"
target triple = "x86_64-unknown-linux-gnu"

%"struct.node::AssertionInfo" = type { ptr, ptr, ptr }
%"class.node::http2::Http2Stream" = type { %"class.node::AsyncWrap", %"class.node::StreamBase", %"struct.node::http2::Http2Stream::Statistics", %"class.node::BaseObjectPtrImpl.2", i32, i32, i32, i32, i32, i32, i32, %"class.std::vector", i64, %"class.std::queue", i64, %"class.node::http2::Http2StreamListener" }
%"class.node::AsyncWrap" = type { %"class.node::BaseObject", i32, i8, double, double }
%"class.node::BaseObject" = type { %"class.node::MemoryRetainer", %"class.v8::Global", ptr, ptr }
%"class.node::MemoryRetainer" = type { ptr }
%"class.v8::Global" = type { %"class.v8::PersistentBase" }
%"class.v8::PersistentBase" = type { %"class.v8::IndirectHandleBase" }
%"class.v8::IndirectHandleBase" = type { ptr }
%"class.node::StreamBase" = type { %"class.node::StreamResource", ptr, %"class.node::EmitToJSStreamListener" }
%"class.node::StreamResource" = type { ptr, ptr, i64, i64 }
%"class.node::EmitToJSStreamListener" = type { %"class.node::ReportWritesToJSStreamListener" }
%"class.node::ReportWritesToJSStreamListener" = type { %"class.node::StreamListener" }
%"class.node::StreamListener" = type { ptr, ptr, ptr }
%"struct.node::http2::Http2Stream::Statistics" = type { i64, i64, i64, i64, i64, i64, i64, i64 }
%"class.node::BaseObjectPtrImpl.2" = type { %union.anon.3 }
%union.anon.3 = type { ptr }
%"class.std::vector" = type { %"struct.std::_Vector_base" }
%"struct.std::_Vector_base" = type { %"struct.std::_Vector_base<node::NgHeader<node::http2::Http2HeaderTraits>, std::allocator<node::NgHeader<node::http2::Http2HeaderTraits>>>::_Vector_impl" }
%"struct.std::_Vector_base<node::NgHeader<node::http2::Http2HeaderTraits>, std::allocator<node::NgHeader<node::http2::Http2HeaderTraits>>>::_Vector_impl" = type { %"struct.std::_Vector_base<node::NgHeader<node::http2::Http2HeaderTraits>, std::allocator<node::NgHeader<node::http2::Http2HeaderTraits>>>::_Vector_impl_data" }
%"struct.std::_Vector_base<node::NgHeader<node::http2::Http2HeaderTraits>, std::allocator<node::NgHeader<node::http2::Http2HeaderTraits>>>::_Vector_impl_data" = type { ptr, ptr, ptr }
%"class.std::queue" = type { %"class.std::deque" }
%"class.std::deque" = type { %"class.std::_Deque_base" }
%"class.std::_Deque_base" = type { %"struct.std::_Deque_base<node::http2::NgHttp2StreamWrite, std::allocator<node::http2::NgHttp2StreamWrite>>::_Deque_impl" }
%"struct.std::_Deque_base<node::http2::NgHttp2StreamWrite, std::allocator<node::http2::NgHttp2StreamWrite>>::_Deque_impl" = type { %"struct.std::_Deque_base<node::http2::NgHttp2StreamWrite, std::allocator<node::http2::NgHttp2StreamWrite>>::_Deque_impl_data" }
%"struct.std::_Deque_base<node::http2::NgHttp2StreamWrite, std::allocator<node::http2::NgHttp2StreamWrite>>::_Deque_impl_data" = type { ptr, i64, %"struct.std::_Deque_iterator", %"struct.std::_Deque_iterator" }
%"struct.std::_Deque_iterator" = type { ptr, ptr, ptr, ptr }
%"class.node::http2::Http2StreamListener" = type { %"class.node::StreamListener" }
%struct.nghttp2_data_provider = type { %union.nghttp2_data_source, ptr }
%union.nghttp2_data_source = type { ptr }
%"class.node::http2::Http2Stream::Provider" = type <{ ptr, %struct.nghttp2_data_provider, i8, [7 x i8] }>

@_ZTVN4node5http211Http2Stream8ProviderE = dso_local unnamed_addr constant { [4 x ptr] } { [4 x ptr] [ptr null, ptr null, ptr @_ZN4node5http211Http2Stream8ProviderD1Ev, ptr @_ZN4node5http211Http2Stream8ProviderD0Ev] }, align 8
@_ZZN4node5http211Http2Stream8ProviderC1EPS1_iE4args = internal constant %"struct.node::AssertionInfo" { ptr @.str.220, ptr @.str.221, ptr @.str.222 }, align 8

; Function Attrs: mustprogress nounwind uwtable
define linkonce_odr dso_local noundef zeroext i1 @_ZNK4node5http211Http2Stream12is_destroyedEv(ptr noundef nonnull align 8 dereferenceable(368) %this) #4 comdat align 2 {
entry:
  %this.addr = alloca ptr, align 8
  store ptr %this, ptr %this.addr, align 8
  %this1 = load ptr, ptr %this.addr, align 8
  %flags_ = getelementptr inbounds %"class.node::http2::Http2Stream", ptr %this1, i32 0, i32 6
  %0 = load i32, ptr %flags_, align 8
  %and = and i32 %0, 16
  %tobool = icmp ne i32 %and, 0
  ret i1 %tobool
}

; Function Attrs: mustprogress nounwind uwtable
define dso_local void @_ZN4node5http211Http2Stream8ProviderC2EPS1_i(ptr noundef nonnull align 8 dereferenceable(25) %this, ptr noundef %stream, i32 noundef %options) unnamed_addr #4 align 2 {
entry:
  %this.addr = alloca ptr, align 8
  %stream.addr = alloca ptr, align 8
  %options.addr = alloca i32, align 4
  store ptr %this, ptr %this.addr, align 8
  store ptr %stream, ptr %stream.addr, align 8
  store i32 %options, ptr %options.addr, align 4
  %this1 = load ptr, ptr %this.addr, align 8
  store ptr getelementptr inbounds ({ [4 x ptr] }, ptr @_ZTVN4node5http211Http2Stream8ProviderE, i32 0, i32 0, i32 2), ptr %this1, align 8
  %empty_ = getelementptr inbounds %"class.node::http2::Http2Stream::Provider", ptr %this1, i32 0, i32 2
  store i8 0, ptr %empty_, align 8
  br label %do.body

do.body:                                          ; preds = %entry
  %0 = load ptr, ptr %stream.addr, align 8
  %call = call noundef zeroext i1 @_ZNK4node5http211Http2Stream12is_destroyedEv(ptr noundef nonnull align 8 dereferenceable(368) %0)
  %lnot = xor i1 %call, true
  %lnot2 = xor i1 %lnot, true
  %lnot3 = xor i1 %lnot2, true
  %lnot4 = xor i1 %lnot3, true
  br i1 %lnot4, label %if.then, label %if.end

if.then:                                          ; preds = %do.body
  br label %do.body5

do.body5:                                         ; preds = %if.then
  call void @_ZN4node6AssertERKNS_13AssertionInfoE(ptr noundef nonnull align 8 dereferenceable(24) @_ZZN4node5http211Http2Stream8ProviderC1EPS1_iE4args)
  call void @abort() #15
  unreachable

do.end:                                           ; No predecessors!
  br label %if.end

if.end:                                           ; preds = %do.end, %do.body
  br label %do.end6

do.end6:                                          ; preds = %if.end
  %1 = load ptr, ptr %stream.addr, align 8
  %provider_7 = getelementptr inbounds %"class.node::http2::Http2Stream::Provider", ptr %this1, i32 0, i32 1
  %source = getelementptr inbounds %struct.nghttp2_data_provider, ptr %provider_7, i32 0, i32 0
  store ptr %1, ptr %source, align 8
  %2 = load i32, ptr %options.addr, align 4
  %and = and i32 %2, 1
  %tobool = icmp ne i32 %and, 0
  %empty_8 = getelementptr inbounds %"class.node::http2::Http2Stream::Provider", ptr %this1, i32 0, i32 2
  %frombool = zext i1 %tobool to i8
  store i8 %frombool, ptr %empty_8, align 8
  ret void
}