; Function Attrs: mustprogress nounwind uwtable
define dso_local void @_ZN4node5http211Http2Stream8ProviderC2EPS1_i(ptr nocapture noundef nonnull writeonly align 8 dereferenceable(25) %this, ptr noundef %stream, i32 noundef %options) unnamed_addr #4 align 2 {
entry:
  store ptr getelementptr inbounds ({ [4 x ptr] }, ptr @_ZTVN4node5http211Http2Stream8ProviderE, i64 0, i32 0, i64 2), ptr %this, align 8
  %empty_ = getelementptr inbounds i8, ptr %this, i64 24
  store i8 0, ptr %empty_, align 8
  %flags_.i = getelementptr inbounds i8, ptr %stream, i64 200
  %0 = load i32, ptr %flags_.i, align 8
  %and.i = and i32 %0, 16
  %tobool.i.not = icmp eq i32 %and.i, 0
  br i1 %tobool.i.not, label %do.end6, label %do.body5

do.body5:                                         ; preds = %entry
  tail call void @_ZN4node6AssertERKNS_13AssertionInfoE(ptr noundef nonnull align 8 dereferenceable(24) @_ZZN4node5http211Http2Stream8ProviderC1EPS1_iE4args) #29
  tail call void @abort() #30
  unreachable

do.end6:                                          ; preds = %entry
  %provider_7 = getelementptr inbounds i8, ptr %this, i64 8
  store ptr %stream, ptr %provider_7, align 8
  %1 = trunc i32 %options to i8
  %frombool = and i8 %1, 1
  store i8 %frombool, ptr %empty_, align 8
  ret void
}